target datalayout = "e-m:e-p270:32:32-p271:32:32-p272:64:64-i64:64-i128:128-f80:128-n8:16:32:64-S128"
target triple = "x86_64-pc-linux-gnu"

%struct.Vec_Int_t_ = type { i32, i32, ptr }
%struct.Mf_Man_t_ = type { ptr, ptr, ptr, ptr, %struct.Vec_Ptr_t_, ptr, %struct.Vec_Int_t_, %struct.Vec_Int_t_, %struct.Vec_Int_t_, i32, i32, i32, i64, [4 x double], [11 x i32] }
%struct.Vec_Ptr_t_ = type { i32, i32, ptr }
%struct.Jf_Par_t_ = type { i32, i32, i32, i32, i32, i32, i32, i32, i32, i32, i32, i32, i32, i32, i32, i32, i32, i32, i32, i32, i32, i32, i32, i32, i32, i32, i32, i32, i32, i32, i32, i32, i32, i32, i32, i32, i32, i32, i32, i32, i64, i64, i64, i64, i64, i64, i64, i64, i32, float, float, float, float, ptr, ptr }
%struct.Mf_Obj_t_ = type { i32, float, float, i32 }

; Function Attrs: inlinehint nounwind uwtable
define internal ptr @Vec_PtrEntry(ptr noundef %0, i32 noundef %1) #2 {
  %3 = alloca ptr, align 8
  %4 = alloca i32, align 4
  store ptr %0, ptr %3, align 8, !tbaa !222
  store i32 %1, ptr %4, align 4, !tbaa !8
  %5 = load ptr, ptr %3, align 8, !tbaa !222
  %6 = getelementptr inbounds nuw %struct.Vec_Ptr_t_, ptr %5, i32 0, i32 2
  %7 = load ptr, ptr %6, align 8, !tbaa !224
  %8 = load i32, ptr %4, align 4, !tbaa !8
  %9 = sext i32 %8 to i64
  %10 = getelementptr inbounds ptr, ptr %7, i64 %9
  %11 = load ptr, ptr %10, align 8, !tbaa !229
  ret ptr %11
}

; Function Attrs: inlinehint nounwind uwtable
define internal ptr @Mf_ManCutSet(ptr noundef %0, i32 noundef %1) #2 {
  %3 = alloca ptr, align 8
  %4 = alloca i32, align 4
  store ptr %0, ptr %3, align 8, !tbaa !43
  store i32 %1, ptr %4, align 4, !tbaa !8
  %5 = load ptr, ptr %3, align 8, !tbaa !43
  %6 = getelementptr inbounds nuw %struct.Mf_Man_t_, ptr %5, i32 0, i32 4
  %7 = load i32, ptr %4, align 4, !tbaa !8
  %8 = ashr i32 %7, 16
  %9 = call ptr @Vec_PtrEntry(ptr noundef %6, i32 noundef %8)
  %10 = load i32, ptr %4, align 4, !tbaa !8
  %11 = and i32 %10, 65535
  %12 = sext i32 %11 to i64
  %13 = getelementptr inbounds i32, ptr %9, i64 %12
  ret ptr %13
}

; Function Attrs: inlinehint nounwind uwtable
define internal ptr @Mf_ObjCutSet(ptr noundef %0, i32 noundef %1) #2 {
  %3 = alloca ptr, align 8
  %4 = alloca i32, align 4
  store ptr %0, ptr %3, align 8, !tbaa !43
  store i32 %1, ptr %4, align 4, !tbaa !8
  %5 = load ptr, ptr %3, align 8, !tbaa !43
  %6 = load ptr, ptr %3, align 8, !tbaa !43
  %7 = load i32, ptr %4, align 4, !tbaa !8
  %8 = call ptr @Mf_ManObj(ptr noundef %6, i32 noundef %7)
  %9 = getelementptr inbounds nuw %struct.Mf_Obj_t_, ptr %8, i32 0, i32 0
  %10 = load i32, ptr %9, align 4, !tbaa !151
  %11 = call ptr @Mf_ManCutSet(ptr noundef %5, i32 noundef %10)
  ret ptr %11
}

; Function Attrs: inlinehint nounwind uwtable
define internal i32 @Vec_IntEntry(ptr noundef %0, i32 noundef %1) #2 {
  %3 = alloca ptr, align 8
  %4 = alloca i32, align 4
  store ptr %0, ptr %3, align 8, !tbaa !39
  store i32 %1, ptr %4, align 4, !tbaa !8
  %5 = load ptr, ptr %3, align 8, !tbaa !39
  %6 = getelementptr inbounds nuw %struct.Vec_Int_t_, ptr %5, i32 0, i32 2
  %7 = load ptr, ptr %6, align 8, !tbaa !73
  %8 = load i32, ptr %4, align 4, !tbaa !8
  %9 = sext i32 %8 to i64
  %10 = getelementptr inbounds i32, ptr %7, i64 %9
  %11 = load i32, ptr %10, align 4, !tbaa !8
  ret i32 %11
}

; Function Attrs: inlinehint nounwind uwtable
define internal i32 @Abc_Lit2Var(i32 noundef %0) #2 {
  %2 = alloca i32, align 4
  store i32 %0, ptr %2, align 4, !tbaa !8
  %3 = load i32, ptr %2, align 4, !tbaa !8
  %4 = ashr i32 %3, 1
  ret i32 %4
}

; Function Attrs: inlinehint nounwind uwtable
define internal ptr @Mf_ObjCutBest(ptr noundef %0, i32 noundef %1) #2 {
  %3 = alloca ptr, align 8
  %4 = alloca i32, align 4
  store ptr %0, ptr %3, align 8, !tbaa !43
  store i32 %1, ptr %4, align 4, !tbaa !8
  %5 = load ptr, ptr %3, align 8, !tbaa !43
  %6 = load i32, ptr %4, align 4, !tbaa !8
  %7 = call ptr @Mf_ObjCutSet(ptr noundef %5, i32 noundef %6)
  %8 = getelementptr inbounds i32, ptr %7, i64 1
  ret ptr %8
}

; Function Attrs: inlinehint nounwind uwtable
define internal ptr @Mf_ManObj(ptr noundef %0, i32 noundef %1) #2 {
  %3 = alloca ptr, align 8
  %4 = alloca i32, align 4
  store ptr %0, ptr %3, align 8, !tbaa !43
  store i32 %1, ptr %4, align 4, !tbaa !8
  %5 = load ptr, ptr %3, align 8, !tbaa !43
  %6 = getelementptr inbounds nuw %struct.Mf_Man_t_, ptr %5, i32 0, i32 3
  %7 = load ptr, ptr %6, align 8, !tbaa !152
  %8 = load i32, ptr %4, align 4, !tbaa !8
  %9 = sext i32 %8 to i64
  %10 = getelementptr inbounds %struct.Mf_Obj_t_, ptr %7, i64 %9
  ret ptr %10
}

; Function Attrs: inlinehint nounwind uwtable
define internal i32 @Mf_ObjMapRefDec(ptr noundef %0, i32 noundef %1) #2 {
  %3 = alloca ptr, align 8
  %4 = alloca i32, align 4
  store ptr %0, ptr %3, align 8, !tbaa !43
  store i32 %1, ptr %4, align 4, !tbaa !8
  %5 = load ptr, ptr %3, align 8, !tbaa !43
  %6 = load i32, ptr %4, align 4, !tbaa !8
  %7 = call ptr @Mf_ManObj(ptr noundef %5, i32 noundef %6)
  %8 = getelementptr inbounds nuw %struct.Mf_Obj_t_, ptr %7, i32 0, i32 3
  %9 = load i32, ptr %8, align 4
  %10 = lshr i32 %9, 16
  %11 = add i32 %10, -1
  %12 = load i32, ptr %8, align 4
  %13 = and i32 %11, 65535
  %14 = shl i32 %13, 16
  %15 = and i32 %12, 65535
  %16 = or i32 %15, %14
  store i32 %16, ptr %8, align 4
  ret i32 %13
}

; Function Attrs: inlinehint nounwind uwtable
define internal i32 @Mf_CutArea(ptr noundef %0, i32 noundef %1, i32 noundef %2) #2 {
  %4 = alloca i32, align 4
  %5 = alloca ptr, align 8
  %6 = alloca i32, align 4
  %7 = alloca i32, align 4
  store ptr %0, ptr %5, align 8, !tbaa !43
  store i32 %1, ptr %6, align 4, !tbaa !8
  store i32 %2, ptr %7, align 4, !tbaa !8
  %8 = load i32, ptr %6, align 4, !tbaa !8
  %9 = icmp slt i32 %8, 2
  br i1 %9, label %10, label %11

10:                                               ; preds = %3
  store i32 0, ptr %4, align 4
  br label %47

11:                                               ; preds = %3
  %12 = load ptr, ptr %5, align 8, !tbaa !43
  %13 = getelementptr inbounds nuw %struct.Mf_Man_t_, ptr %12, i32 0, i32 2
  %14 = load ptr, ptr %13, align 8, !tbaa !68
  %15 = getelementptr inbounds nuw %struct.Jf_Par_t_, ptr %14, i32 0, i32 24
  %16 = load i32, ptr %15, align 8, !tbaa !160
  %17 = icmp ne i32 %16, 0
  br i1 %17, label %25, label %18

18:                                               ; preds = %11
  %19 = load ptr, ptr %5, align 8, !tbaa !43
  %20 = getelementptr inbounds nuw %struct.Mf_Man_t_, ptr %19, i32 0, i32 2
  %21 = load ptr, ptr %20, align 8, !tbaa !68
  %22 = getelementptr inbounds nuw %struct.Jf_Par_t_, ptr %21, i32 0, i32 25
  %23 = load i32, ptr %22, align 4, !tbaa !161
  %24 = icmp ne i32 %23, 0
  br i1 %24, label %25, label %31

25:                                               ; preds = %18, %11
  %26 = load ptr, ptr %5, align 8, !tbaa !43
  %27 = getelementptr inbounds nuw %struct.Mf_Man_t_, ptr %26, i32 0, i32 6
  %28 = load i32, ptr %7, align 4, !tbaa !8
  %29 = call i32 @Abc_Lit2Var(i32 noundef %28)
  %30 = call i32 @Vec_IntEntry(ptr noundef %27, i32 noundef %29)
  store i32 %30, ptr %4, align 4
  br label %47

31:                                               ; preds = %18
  %32 = load ptr, ptr %5, align 8, !tbaa !43
  %33 = getelementptr inbounds nuw %struct.Mf_Man_t_, ptr %32, i32 0, i32 2
  %34 = load ptr, ptr %33, align 8, !tbaa !68
  %35 = getelementptr inbounds nuw %struct.Jf_Par_t_, ptr %34, i32 0, i32 18
  %36 = load i32, ptr %35, align 8, !tbaa !188
  %37 = icmp ne i32 %36, 0
  br i1 %37, label %38, label %46

38:                                               ; preds = %31
  %39 = load i32, ptr %6, align 4, !tbaa !8
  %40 = load ptr, ptr %5, align 8, !tbaa !43
  %41 = getelementptr inbounds nuw %struct.Mf_Man_t_, ptr %40, i32 0, i32 2
  %42 = load ptr, ptr %41, align 8, !tbaa !68
  %43 = getelementptr inbounds nuw %struct.Jf_Par_t_, ptr %42, i32 0, i32 7
  %44 = load i32, ptr %43, align 4, !tbaa !189
  %45 = add nsw i32 %39, %44
  store i32 %45, ptr %4, align 4
  br label %47

46:                                               ; preds = %31
  store i32 1, ptr %4, align 4
  br label %47

47:                                               ; preds = %46, %38, %25, %10
  %48 = load i32, ptr %4, align 4
  ret i32 %48
}

; Function Attrs: inlinehint nounwind uwtable
define internal i32 @Mf_CutFunc(ptr noundef %0) #2 {
  %2 = alloca ptr, align 8
  store ptr %0, ptr %2, align 8, !tbaa !22
  %3 = load ptr, ptr %2, align 8, !tbaa !22
  %4 = getelementptr inbounds i32, ptr %3, i64 0
  %5 = load i32, ptr %4, align 4, !tbaa !8
  %6 = lshr i32 %5, 5
  ret i32 %6
}

; Function Attrs: inlinehint nounwind uwtable
define internal i32 @Mf_CutSize(ptr noundef %0) #2 {
  %2 = alloca ptr, align 8
  store ptr %0, ptr %2, align 8, !tbaa !22
  %3 = load ptr, ptr %2, align 8, !tbaa !22
  %4 = getelementptr inbounds i32, ptr %3, i64 0
  %5 = load i32, ptr %4, align 4, !tbaa !8
  %6 = and i32 %5, 31
  ret i32 %6
}

; Function Attrs: nounwind uwtable
define i32 @Mf_CutDeref_rec(ptr noundef %0, ptr noundef %1) #0 {
  %3 = alloca ptr, align 8
  %4 = alloca ptr, align 8
  %5 = alloca i32, align 4
  %6 = alloca i32, align 4
  store ptr %0, ptr %3, align 8, !tbaa !43
  store ptr %1, ptr %4, align 8, !tbaa !22
  call void @llvm.lifetime.start.p0(i64 4, ptr %5) #14
  call void @llvm.lifetime.start.p0(i64 4, ptr %6) #14
  %7 = load ptr, ptr %3, align 8, !tbaa !43
  %8 = load ptr, ptr %4, align 8, !tbaa !22
  %9 = call i32 @Mf_CutSize(ptr noundef %8)
  %10 = load ptr, ptr %4, align 8, !tbaa !22
  %11 = call i32 @Mf_CutFunc(ptr noundef %10)
  %12 = call i32 @Mf_CutArea(ptr noundef %7, i32 noundef %9, i32 noundef %11)
  store i32 %12, ptr %6, align 4, !tbaa !8
  store i32 1, ptr %5, align 4, !tbaa !8
  br label %13

13:                                               ; preds = %51, %2
  %14 = load i32, ptr %5, align 4, !tbaa !8
  %15 = load ptr, ptr %4, align 8, !tbaa !22
  %16 = call i32 @Mf_CutSize(ptr noundef %15)
  %17 = icmp sle i32 %14, %16
  br i1 %17, label %18, label %54

18:                                               ; preds = %13
  %19 = load ptr, ptr %3, align 8, !tbaa !43
  %20 = load ptr, ptr %4, align 8, !tbaa !22
  %21 = load i32, ptr %5, align 4, !tbaa !8
  %22 = sext i32 %21 to i64
  %23 = getelementptr inbounds i32, ptr %20, i64 %22
  %24 = load i32, ptr %23, align 4, !tbaa !8
  %25 = call i32 @Mf_ObjMapRefDec(ptr noundef %19, i32 noundef %24)
  %26 = icmp ne i32 %25, 0
  br i1 %26, label %50, label %27

27:                                               ; preds = %18
  %28 = load ptr, ptr %3, align 8, !tbaa !43
  %29 = load ptr, ptr %4, align 8, !tbaa !22
  %30 = load i32, ptr %5, align 4, !tbaa !8
  %31 = sext i32 %30 to i64
  %32 = getelementptr inbounds i32, ptr %29, i64 %31
  %33 = load i32, ptr %32, align 4, !tbaa !8
  %34 = call ptr @Mf_ManObj(ptr noundef %28, i32 noundef %33)
  %35 = getelementptr inbounds nuw %struct.Mf_Obj_t_, ptr %34, i32 0, i32 0
  %36 = load i32, ptr %35, align 4, !tbaa !151
  %37 = icmp ne i32 %36, 0
  br i1 %37, label %38, label %50

38:                                               ; preds = %27
  %39 = load ptr, ptr %3, align 8, !tbaa !43
  %40 = load ptr, ptr %3, align 8, !tbaa !43
  %41 = load ptr, ptr %4, align 8, !tbaa !22
  %42 = load i32, ptr %5, align 4, !tbaa !8
  %43 = sext i32 %42 to i64
  %44 = getelementptr inbounds i32, ptr %41, i64 %43
  %45 = load i32, ptr %44, align 4, !tbaa !8
  %46 = call ptr @Mf_ObjCutBest(ptr noundef %40, i32 noundef %45)
  %47 = call i32 @Mf_CutDeref_rec(ptr noundef %39, ptr noundef %46)
  %48 = load i32, ptr %6, align 4, !tbaa !8
  %49 = add nsw i32 %48, %47
  store i32 %49, ptr %6, align 4, !tbaa !8
  br label %50

50:                                               ; preds = %38, %27, %18
  br label %51

51:                                               ; preds = %50
  %52 = load i32, ptr %5, align 4, !tbaa !8
  %53 = add nsw i32 %52, 1
  store i32 %53, ptr %5, align 4, !tbaa !8
  br label %13, !llvm.loop !248

54:                                               ; preds = %13
  %55 = load i32, ptr %6, align 4, !tbaa !8
  call void @llvm.lifetime.end.p0(i64 4, ptr %6) #14
  call void @llvm.lifetime.end.p0(i64 4, ptr %5) #14
  ret i32 %55
}