; Function Attrs: nofree nosync nounwind memory(readwrite, inaccessiblemem: none) uwtable
define i32 @Mf_CutDeref_rec(ptr noundef readonly captures(none) %0, ptr noundef readonly captures(none) %1) local_unnamed_addr #14 {
  %.val24 = load i32, ptr %1, align 4, !tbaa !12
  %3 = and i32 %.val24, 31
  %4 = lshr i32 %.val24, 6
  %5 = icmp samesign ult i32 %3, 2
  br i1 %5, label %Mf_CutArea.exit, label %6

6:                                                ; preds = %2
  %7 = getelementptr inbounds nuw i8, ptr %0, i64 16
  %8 = load ptr, ptr %7, align 8, !tbaa !86
  %9 = getelementptr inbounds nuw i8, ptr %8, i64 96
  %10 = load i32, ptr %9, align 8, !tbaa !151
  %.not.i = icmp eq i32 %10, 0
  br i1 %.not.i, label %11, label %14

11:                                               ; preds = %6
  %12 = getelementptr inbounds nuw i8, ptr %8, i64 100
  %13 = load i32, ptr %12, align 4, !tbaa !152
  %.not9.i = icmp eq i32 %13, 0
  br i1 %.not9.i, label %19, label %14

14:                                               ; preds = %11, %6
  %15 = getelementptr i8, ptr %0, i64 64
  %.val.i = load ptr, ptr %15, align 8, !tbaa !26
  %16 = zext nneg i32 %4 to i64
  %17 = getelementptr inbounds nuw i32, ptr %.val.i, i64 %16
  %18 = load i32, ptr %17, align 4, !tbaa !12
  br label %.lr.ph

19:                                               ; preds = %11
  %20 = getelementptr inbounds nuw i8, ptr %8, i64 72
  %21 = load i32, ptr %20, align 8, !tbaa !153
  %.not10.i = icmp eq i32 %21, 0
  br i1 %.not10.i, label %.lr.ph, label %22

22:                                               ; preds = %19
  %23 = getelementptr inbounds nuw i8, ptr %8, i64 28
  %24 = load i32, ptr %23, align 4, !tbaa !154
  %25 = add nsw i32 %24, %3
  br label %.lr.ph

Mf_CutArea.exit:                                  ; preds = %2
  %.not27 = icmp eq i32 %3, 0
  br i1 %.not27, label %._crit_edge, label %.lr.ph

.lr.ph:                                           ; preds = %22, %19, %14, %Mf_CutArea.exit
  %.0.i33 = phi i32 [ 0, %Mf_CutArea.exit ], [ 1, %19 ], [ %25, %22 ], [ %18, %14 ]
  %26 = getelementptr i8, ptr %0, i64 24
  %27 = getelementptr i8, ptr %0, i64 40
  br label %28

28:                                               ; preds = %.lr.ph, %54
  %indvars.iv = phi i64 [ 1, %.lr.ph ], [ %indvars.iv.next, %54 ]
  %.029 = phi i32 [ %.0.i33, %.lr.ph ], [ %.1, %54 ]
  %29 = getelementptr inbounds nuw i32, ptr %1, i64 %indvars.iv
  %30 = load i32, ptr %29, align 4, !tbaa !12
  %.val25 = load ptr, ptr %26, align 8, !tbaa !79
  %31 = sext i32 %30 to i64
  %32 = getelementptr inbounds %struct.Mf_Obj_t_, ptr %.val25, i64 %31, i32 3
  %33 = load i32, ptr %32, align 4
  %34 = and i32 %33, -65536
  %35 = add i32 %34, -65536
  %36 = and i32 %33, 65535
  %37 = or disjoint i32 %35, %36
  store i32 %37, ptr %32, align 4
  %.not18 = icmp eq i32 %34, 65536
  br i1 %.not18, label %38, label %54

38:                                               ; preds = %28
  %39 = load i32, ptr %29, align 4, !tbaa !12
  %.val = load ptr, ptr %26, align 8, !tbaa !79
  %40 = sext i32 %39 to i64
  %41 = getelementptr inbounds %struct.Mf_Obj_t_, ptr %.val, i64 %40
  %42 = load i32, ptr %41, align 4, !tbaa !81
  %.not19 = icmp eq i32 %42, 0
  br i1 %.not19, label %54, label %43

43:                                               ; preds = %38
  %.val21 = load ptr, ptr %27, align 8, !tbaa !80
  %44 = ashr i32 %42, 16
  %45 = sext i32 %44 to i64
  %46 = getelementptr inbounds ptr, ptr %.val21, i64 %45
  %47 = load ptr, ptr %46, align 8, !tbaa !83
  %48 = and i32 %42, 65535
  %49 = zext nneg i32 %48 to i64
  %50 = getelementptr inbounds nuw i32, ptr %47, i64 %49
  %51 = getelementptr inbounds nuw i8, ptr %50, i64 4
  %52 = tail call i32 @Mf_CutDeref_rec(ptr noundef nonnull %0, ptr noundef nonnull %51)
  %53 = add nsw i32 %52, %.029
  br label %54

54:                                               ; preds = %28, %38, %43
  %.1 = phi i32 [ %.029, %28 ], [ %53, %43 ], [ %.029, %38 ]
  %indvars.iv.next = add nuw nsw i64 %indvars.iv, 1
  %.val23 = load i32, ptr %1, align 4, !tbaa !12
  %55 = and i32 %.val23, 31
  %56 = zext nneg i32 %55 to i64
  %.not.not = icmp samesign ult i64 %indvars.iv, %56
  br i1 %.not.not, label %28, label %._crit_edge, !llvm.loop !272

._crit_edge:                                      ; preds = %54, %Mf_CutArea.exit
  %.0.lcssa = phi i32 [ 0, %Mf_CutArea.exit ], [ %.1, %54 ]
  ret i32 %.0.lcssa
}